; Function Attrs: nounwind uwtable
define void @luckyCanonicizer_final(ptr noundef %0, ptr noundef captures(none) %1, ptr noundef captures(none) %2, i32 noundef %3) local_unnamed_addr #0 {
  tail call void @Kit_TruthSemiCanonicize_Yasha_simple(ptr noundef %0, i32 noundef %3, ptr noundef null) #19
  %invariant.gep.i = getelementptr i8, ptr %0, i64 -8
  br label %5

5:                                                ; preds = %minimalInitialFlip1.exit.i, %4
  %6 = tail call i32 @Kit_TruthWordNum_64bit(i32 noundef %3) #19
  %7 = sext i32 %6 to i64
  %gep.i = getelementptr i64, ptr %invariant.gep.i, i64 %7
  %8 = load i64, ptr %gep.i, align 8, !tbaa !3
  %.not.i.i = icmp sgt i64 %8, -1
  br i1 %.not.i.i, label %minimalInitialFlip1.exit.i, label %9

9:                                                ; preds = %5
  tail call void @Kit_TruthNot_64bit(ptr noundef nonnull %0, i32 noundef %3) #19
  br label %minimalInitialFlip1.exit.i

minimalInitialFlip1.exit.i:                       ; preds = %9, %5
  %.0.i.i = phi i32 [ 1, %9 ], [ 0, %5 ]
  %10 = tail call i32 @minimalFlip1(ptr noundef nonnull %0, ptr noundef %1, ptr noundef %2, i32 noundef %3)
  %11 = add nuw nsw i32 %10, %.0.i.i
  %12 = tail call i32 @minimalSwap1(ptr noundef nonnull %0, ptr noundef %1, ptr noundef %2, i32 noundef %3)
  %13 = or i32 %11, %12
  %.not.i = icmp eq i32 %13, 0
  br i1 %.not.i, label %luckyCanonicizer1_simple.exit, label %5, !llvm.loop !34

luckyCanonicizer1_simple.exit:                    ; preds = %minimalInitialFlip1.exit.i
  ret void
}